target datalayout = "e-m:e-p270:32:32-p271:32:32-p272:64:64-i64:64-i128:128-f80:128-n8:16:32:64-S128"
target triple = "x86_64-pc-linux-gnu"

%struct.Rwr_Man4_t_ = type { i32, ptr, ptr, i32, i32 }

@s_pManRwrExp4 = internal global ptr null, align 8

; Function Attrs: nounwind uwtable
define void @Rwt_Man4ExploreCount(i32 noundef %0) #0 {
  %2 = alloca i32, align 4
  store i32 %0, ptr %2, align 4, !tbaa !14
  %3 = load ptr, ptr @s_pManRwrExp4, align 8, !tbaa !3
  %4 = getelementptr inbounds nuw %struct.Rwr_Man4_t_, ptr %3, i32 0, i32 2
  %5 = load ptr, ptr %4, align 8, !tbaa !13
  %6 = load ptr, ptr @s_pManRwrExp4, align 8, !tbaa !3
  %7 = getelementptr inbounds nuw %struct.Rwr_Man4_t_, ptr %6, i32 0, i32 1
  %8 = load ptr, ptr %7, align 8, !tbaa !15
  %9 = load i32, ptr %2, align 4, !tbaa !14
  %10 = zext i32 %9 to i64
  %11 = getelementptr inbounds nuw i16, ptr %8, i64 %10
  %12 = load i16, ptr %11, align 2, !tbaa !16
  %13 = zext i16 %12 to i64
  %14 = getelementptr inbounds nuw i32, ptr %5, i64 %13
  %15 = load i32, ptr %14, align 4, !tbaa !14
  %16 = add nsw i32 %15, 1
  store i32 %16, ptr %14, align 4, !tbaa !14
  ret void
}