; Function Attrs: mustprogress nofree norecurse nosync nounwind willreturn memory(readwrite, inaccessiblemem: none) uwtable
define void @Rwt_Man4ExploreCount(i32 noundef %0) local_unnamed_addr #4 {
  %2 = load ptr, ptr @s_pManRwrExp4, align 8, !tbaa !12
  %3 = getelementptr inbounds nuw i8, ptr %2, i64 16
  %4 = load ptr, ptr %3, align 8, !tbaa !11
  %5 = getelementptr inbounds nuw i8, ptr %2, i64 8
  %6 = load ptr, ptr %5, align 8, !tbaa !14
  %7 = zext i32 %0 to i64
  %8 = getelementptr inbounds nuw i16, ptr %6, i64 %7
  %9 = load i16, ptr %8, align 2, !tbaa !15
  %10 = zext i16 %9 to i64
  %11 = getelementptr inbounds nuw i32, ptr %4, i64 %10
  %12 = load i32, ptr %11, align 4, !tbaa !17
  %13 = add nsw i32 %12, 1
  store i32 %13, ptr %11, align 4, !tbaa !17
  ret void
}